; Function Attrs: mustprogress uwtable
define void @_ZN8QuantLib25QuantoDoubleBarrierOptionC1ENS_13DoubleBarrier4TypeEdddRKN5boost10shared_ptrINS_17StrikedTypePayoffEEERKNS4_INS_8ExerciseEEE(ptr noundef nonnull align 8 dereferenceable(280) %this, i32 noundef %barrierType, double noundef %barrier_lo, double noundef %barrier_hi, double noundef %rebate, ptr noundef nonnull align 1 %payoff, ptr noundef nonnull align 8 dereferenceable(16) %exercise) unnamed_addr #9 align 2 personality ptr @__gxx_personality_v0 {
entry:
  %0 = getelementptr inbounds i8, ptr %this, i64 280
  store ptr getelementptr inbounds inrange(-16, 16) (i8, ptr @_ZTVN8QuantLib10ObservableE, i64 16), ptr %0, align 8, !tbaa !33
  %1 = getelementptr inbounds i8, ptr %this, i64 296
  store i32 0, ptr %1, align 8, !tbaa !8
  %_M_parent.i.i.i.i.i.i = getelementptr inbounds i8, ptr %this, i64 304
  store ptr null, ptr %_M_parent.i.i.i.i.i.i, align 8, !tbaa !13
  %_M_left.i.i.i.i.i.i = getelementptr inbounds i8, ptr %this, i64 312
  store ptr %1, ptr %_M_left.i.i.i.i.i.i, align 8, !tbaa !14
  %_M_right.i.i.i.i.i.i = getelementptr inbounds i8, ptr %this, i64 320
  store ptr %1, ptr %_M_right.i.i.i.i.i.i, align 8, !tbaa !15
  %_M_node_count.i.i.i.i.i.i = getelementptr inbounds i8, ptr %this, i64 328
  store i64 0, ptr %_M_node_count.i.i.i.i.i.i, align 8, !tbaa !16
  %2 = getelementptr inbounds i8, ptr %this, i64 336
  store ptr getelementptr inbounds inrange(-16, 32) (i8, ptr @_ZTVN8QuantLib8ObserverE, i64 16), ptr %2, align 8, !tbaa !33
  %3 = getelementptr inbounds i8, ptr %this, i64 352
  store i32 0, ptr %3, align 8, !tbaa !8
  %_M_parent.i.i.i.i.i.i1 = getelementptr inbounds i8, ptr %this, i64 360
  store ptr null, ptr %_M_parent.i.i.i.i.i.i1, align 8, !tbaa !13
  %_M_left.i.i.i.i.i.i2 = getelementptr inbounds i8, ptr %this, i64 368
  store ptr %3, ptr %_M_left.i.i.i.i.i.i2, align 8, !tbaa !14
  %_M_right.i.i.i.i.i.i3 = getelementptr inbounds i8, ptr %this, i64 376
  store ptr %3, ptr %_M_right.i.i.i.i.i.i3, align 8, !tbaa !15
  %_M_node_count.i.i.i.i.i.i4 = getelementptr inbounds i8, ptr %this, i64 384
  store i64 0, ptr %_M_node_count.i.i.i.i.i.i4, align 8, !tbaa !16
  invoke void @_ZN8QuantLib19DoubleBarrierOptionC2ENS_13DoubleBarrier4TypeEdddRKN5boost10shared_ptrINS_17StrikedTypePayoffEEERKNS4_INS_8ExerciseEEE(ptr noundef nonnull align 8 dereferenceable(256) %this, ptr noundef nonnull getelementptr inbounds (i8, ptr @_ZTTN8QuantLib25QuantoDoubleBarrierOptionE, i64 8), i32 noundef %barrierType, double noundef %barrier_lo, double noundef %barrier_hi, double noundef %rebate, ptr noundef nonnull align 1 %payoff, ptr noundef nonnull align 8 dereferenceable(16) %exercise)
          to label %invoke.cont unwind label %lpad

invoke.cont:                                      ; preds = %entry
  store ptr getelementptr inbounds inrange(-32, 72) (i8, ptr @_ZTVN8QuantLib25QuantoDoubleBarrierOptionE, i64 32), ptr %this, align 8, !tbaa !33
  store ptr getelementptr inbounds inrange(-24, 16) (i8, ptr @_ZTVN8QuantLib25QuantoDoubleBarrierOptionE, i64 128), ptr %0, align 8, !tbaa !33
  store ptr getelementptr inbounds inrange(-40, 32) (i8, ptr @_ZTVN8QuantLib25QuantoDoubleBarrierOptionE, i64 184), ptr %2, align 8, !tbaa !33
  ret void

lpad:                                             ; preds = %entry
  %4 = landingpad { ptr, i32 }
          cleanup
  tail call void @_ZN8QuantLib8ObserverD2Ev(ptr noundef nonnull align 8 dereferenceable(56) %2) #24
  tail call void @_ZN8QuantLib10ObservableD2Ev(ptr noundef nonnull align 8 dereferenceable(56) %0) #24
  resume { ptr, i32 } %4
}